; Function Attrs: mustprogress uwtable
define hidden void @_ZN2dd11pdd_manager27get_univariate_coefficientsEjR6vectorI8rationalLb1EjE(ptr noundef nonnull readonly align 8 captures(none) dereferenceable(952) %0, i32 noundef %1, ptr noundef nonnull align 8 dereferenceable(8) %2) local_unnamed_addr #3 align 2 {
  %4 = getelementptr inbounds nuw i8, ptr %0, i64 8
  %.pre = load ptr, ptr %0, align 8, !tbaa !91
  br label %5

5:                                                ; preds = %_ZNK2dd11pdd_manager6is_valEj.exit.thread6, %3
  %6 = phi ptr [ %.pre, %3 ], [ %26, %_ZNK2dd11pdd_manager6is_valEj.exit.thread6 ]
  %.0 = phi i32 [ %1, %3 ], [ %28, %_ZNK2dd11pdd_manager6is_valEj.exit.thread6 ]
  %7 = zext i32 %.0 to i64
  %8 = getelementptr inbounds nuw %"struct.dd::pdd_manager::node", ptr %6, i64 %7
  %9 = getelementptr inbounds nuw i8, ptr %8, i64 8
  %10 = load i32, ptr %9, align 4, !tbaa !92
  %11 = icmp eq i32 %10, 0
  br i1 %11, label %13, label %._ZNK2dd11pdd_manager6is_valEj.exit.thread6_crit_edge

._ZNK2dd11pdd_manager6is_valEj.exit.thread6_crit_edge: ; preds = %5
  %.phi.trans.insert = getelementptr inbounds nuw %"struct.dd::pdd_manager::node", ptr %6, i64 %7, i32 1
  %.pre9 = load i32, ptr %.phi.trans.insert, align 4, !tbaa !94
  %12 = zext i32 %.pre9 to i64
  br label %_ZNK2dd11pdd_manager6is_valEj.exit.thread6

13:                                               ; preds = %5
  %14 = getelementptr inbounds nuw i8, ptr %8, i64 4
  %15 = load i32, ptr %14, align 4, !tbaa !94
  %.not.i.i = icmp eq i32 %15, 0
  br i1 %.not.i.i, label %_ZNK2dd11pdd_manager6is_valEj.exit, label %_ZNK2dd11pdd_manager6is_valEj.exit.thread

_ZNK2dd11pdd_manager6is_valEj.exit:               ; preds = %13
  %16 = getelementptr inbounds nuw i8, ptr %8, i64 12
  %17 = load i32, ptr %16, align 4, !tbaa !98
  %18 = icmp eq i32 %17, 0
  br i1 %18, label %_ZNK2dd11pdd_manager6is_valEj.exit.thread, label %_ZNK2dd11pdd_manager6is_valEj.exit.thread6

_ZNK2dd11pdd_manager6is_valEj.exit.thread6:       ; preds = %._ZNK2dd11pdd_manager6is_valEj.exit.thread6_crit_edge, %_ZNK2dd11pdd_manager6is_valEj.exit
  %19 = phi i64 [ %12, %._ZNK2dd11pdd_manager6is_valEj.exit.thread6_crit_edge ], [ 0, %_ZNK2dd11pdd_manager6is_valEj.exit ]
  %20 = getelementptr inbounds nuw %"struct.dd::pdd_manager::node", ptr %6, i64 %19, i32 1
  %21 = load i32, ptr %20, align 4, !tbaa !94
  %22 = load ptr, ptr %4, align 8, !tbaa !95
  %23 = zext i32 %21 to i64
  %24 = getelementptr inbounds nuw %class.rational, ptr %22, i64 %23
  %25 = tail call noundef nonnull align 8 dereferenceable(8) ptr @_ZN6vectorI8rationalLb1EjE9push_backERKS0_(ptr noundef nonnull align 8 dereferenceable(8) %2, ptr noundef nonnull align 8 dereferenceable(32) %24)
  %26 = load ptr, ptr %0, align 8, !tbaa !91
  %27 = getelementptr inbounds nuw %"struct.dd::pdd_manager::node", ptr %26, i64 %7, i32 2
  %28 = load i32, ptr %27, align 4, !tbaa !92
  br label %5, !llvm.loop !465

_ZNK2dd11pdd_manager6is_valEj.exit.thread:        ; preds = %13, %_ZNK2dd11pdd_manager6is_valEj.exit
  %29 = load ptr, ptr %4, align 8, !tbaa !95
  %30 = zext i32 %15 to i64
  %31 = getelementptr inbounds nuw %class.rational, ptr %29, i64 %30
  %32 = tail call noundef nonnull align 8 dereferenceable(8) ptr @_ZN6vectorI8rationalLb1EjE9push_backERKS0_(ptr noundef nonnull align 8 dereferenceable(8) %2, ptr noundef nonnull align 8 dereferenceable(32) %31)
  ret void
}